target datalayout = "e-m:e-p270:32:32-p271:32:32-p272:64:64-i64:64-i128:128-f80:128-n8:16:32:64-S128"
target triple = "x86_64-pc-linux-gnu"

@stderr = external global ptr, align 8
@.str.1 = private unnamed_addr constant [32 x i8] c"only DDL is supported for now.\0A\00", align 1
@input_len = global i64 0, align 8
@myinput = global ptr null, align 8

; Function Attrs: nounwind uwtable
define i64 @H5LTtext_to_dtype(ptr noundef %0, i32 noundef %1) #0 {
  %3 = alloca i64, align 8
  %4 = alloca ptr, align 8
  %5 = alloca i32, align 4
  %6 = alloca i64, align 8
  %7 = alloca i32, align 4
  store ptr %0, ptr %4, align 8, !tbaa !7
  store i32 %1, ptr %5, align 4, !tbaa !10
  call void @llvm.lifetime.start.p0(i64 8, ptr %6) #11
  %8 = load ptr, ptr %4, align 8, !tbaa !7
  %9 = icmp eq ptr %8, null
  br i1 %9, label %10, label %11

10:                                               ; preds = %2
  store i64 -1, ptr %3, align 8
  store i32 1, ptr %7, align 4
  br label %37

11:                                               ; preds = %2
  %12 = load i32, ptr %5, align 4, !tbaa !10
  %13 = icmp sle i32 %12, -1
  br i1 %13, label %17, label %14

14:                                               ; preds = %11
  %15 = load i32, ptr %5, align 4, !tbaa !10
  %16 = icmp sge i32 %15, 3
  br i1 %16, label %17, label %18

17:                                               ; preds = %14, %11
  br label %36

18:                                               ; preds = %14
  %19 = load i32, ptr %5, align 4, !tbaa !10
  %20 = icmp ne i32 %19, 0
  br i1 %20, label %21, label %24

21:                                               ; preds = %18
  %22 = load ptr, ptr @stderr, align 8, !tbaa !45
  %23 = call i32 (ptr, ptr, ...) @fprintf(ptr noundef %22, ptr noundef @.str.1) #11
  br label %36

24:                                               ; preds = %18
  %25 = load ptr, ptr %4, align 8, !tbaa !7
  %26 = call i64 @strlen(ptr noundef %25) #12
  store i64 %26, ptr @input_len, align 8, !tbaa !3
  %27 = load ptr, ptr %4, align 8, !tbaa !7
  %28 = call noalias ptr @strdup(ptr noundef %27) #11
  store ptr %28, ptr @myinput, align 8, !tbaa !7
  %29 = call i64 @H5LTyyparse()
  store i64 %29, ptr %6, align 8, !tbaa !3
  %30 = icmp slt i64 %29, 0
  br i1 %30, label %31, label %33

31:                                               ; preds = %24
  %32 = load ptr, ptr @myinput, align 8, !tbaa !7
  call void @free(ptr noundef %32) #11
  br label %36

33:                                               ; preds = %24
  %34 = load ptr, ptr @myinput, align 8, !tbaa !7
  call void @free(ptr noundef %34) #11
  store i64 0, ptr @input_len, align 8, !tbaa !3
  %35 = load i64, ptr %6, align 8, !tbaa !3
  store i64 %35, ptr %3, align 8
  store i32 1, ptr %7, align 4
  br label %37

36:                                               ; preds = %31, %21, %17
  store i64 -1, ptr %3, align 8
  store i32 1, ptr %7, align 4
  br label %37

37:                                               ; preds = %36, %33, %10
  call void @llvm.lifetime.end.p0(i64 8, ptr %6) #11
  %38 = load i64, ptr %3, align 8
  ret i64 %38
}