; Function Attrs: nounwind uwtable
define range(i64 -1, -9223372036854775808) i64 @H5LTtext_to_dtype(ptr noundef readonly captures(address_is_null) %0, i32 noundef %1) local_unnamed_addr #0 {
  %3 = icmp eq ptr %0, null
  %or.cond = icmp ugt i32 %1, 2
  %or.cond11 = or i1 %3, %or.cond
  br i1 %or.cond11, label %15, label %4

4:                                                ; preds = %2
  %.not = icmp eq i32 %1, 0
  br i1 %.not, label %8, label %5

5:                                                ; preds = %4
  %6 = load ptr, ptr @stderr, align 8, !tbaa !30
  %7 = tail call i64 @fwrite(ptr nonnull @.str.1, i64 31, i64 1, ptr %6) #24
  br label %15

8:                                                ; preds = %4
  %9 = tail call i64 @strlen(ptr noundef nonnull dereferenceable(1) %0) #21
  store i64 %9, ptr @input_len, align 8, !tbaa !15
  %10 = tail call noalias ptr @strdup(ptr noundef nonnull %0) #20
  store ptr %10, ptr @myinput, align 8, !tbaa !32
  %11 = tail call i64 @H5LTyyparse() #20
  %12 = icmp slt i64 %11, 0
  %13 = load ptr, ptr @myinput, align 8, !tbaa !32
  tail call void @free(ptr noundef %13) #20
  br i1 %12, label %15, label %14

14:                                               ; preds = %8
  store i64 0, ptr @input_len, align 8, !tbaa !15
  br label %15

15:                                               ; preds = %8, %5, %2, %14
  %.0 = phi i64 [ %11, %14 ], [ -1, %2 ], [ -1, %5 ], [ -1, %8 ]
  ret i64 %.0
}